target datalayout = "e-m:e-p270:32:32-p271:32:32-p272:64:64-i64:64-i128:128-f80:128-n8:16:32:64-S128"
target triple = "x86_64-pc-linux-gnu"

%struct.rb_data_type_struct = type { ptr, %struct.anon.12, ptr, ptr, i64 }
%struct.anon.12 = type { ptr, ptr, ptr, ptr, [1 x ptr] }
%struct.rb_code_location_struct = type { %struct.rb_code_position_struct, %struct.rb_code_position_struct }
%struct.rb_code_position_struct = type { i32, i32 }
%struct.ASTNodeData = type { i64, ptr }
%struct.RNode = type { i64, %struct.rb_code_location_struct, i32 }

@rb_node_type = internal constant %struct.rb_data_type_struct { ptr @.str.24, %struct.anon.12 { ptr @node_gc_mark, ptr inttoptr (i64 -1 to ptr), ptr @node_memsize, ptr null, [1 x ptr] zeroinitializer }, ptr null, ptr null, i64 1 }, align 8

; Function Attrs: nounwind sspstrong uwtable
define internal ptr @node_type_to_str(ptr noundef %0) #0 {
  %2 = alloca ptr, align 8
  store ptr %0, ptr %2, align 8, !tbaa !109
  %3 = load ptr, ptr %2, align 8, !tbaa !109
  %4 = getelementptr inbounds nuw %struct.RNode, ptr %3, i32 0, i32 0
  %5 = load i64, ptr %4, align 8, !tbaa !129
  %6 = and i64 %5, 32512
  %7 = lshr i64 %6, 8
  %8 = trunc i64 %7 to i32
  %9 = call ptr @ruby_node_name(i32 noundef %8)
  %10 = getelementptr i8, ptr %9, i64 5
  ret ptr %10
}

; Function Attrs: nounwind sspstrong uwtable
define internal i64 @ast_node_type(ptr noundef %0, i64 noundef %1) #0 {
  %3 = alloca ptr, align 8
  %4 = alloca i64, align 8
  %5 = alloca ptr, align 8
  store ptr %0, ptr %3, align 8, !tbaa !7
  store i64 %1, ptr %4, align 8, !tbaa !12
  call void @llvm.lifetime.start.p0(i64 8, ptr %5) #16
  %6 = load i64, ptr %4, align 8, !tbaa !12
  %7 = call ptr @rb_check_typeddata(i64 noundef %6, ptr noundef @rb_node_type)
  store ptr %7, ptr %5, align 8, !tbaa !44
  %8 = load ptr, ptr %5, align 8, !tbaa !44
  %9 = getelementptr inbounds nuw %struct.ASTNodeData, ptr %8, i32 0, i32 1
  %10 = load ptr, ptr %9, align 8, !tbaa !46
  %11 = call ptr @node_type_to_str(ptr noundef %10)
  %12 = call i64 @rb_sym_intern_ascii_cstr(ptr noundef %11)
  call void @llvm.lifetime.end.p0(i64 8, ptr %5) #16
  ret i64 %12
}