; Function Attrs: nounwind sspstrong uwtable
define internal i64 @ast_node_type(ptr readnone captures(none) %0, i64 noundef %1) #0 {
  %3 = tail call ptr @rb_check_typeddata(i64 noundef %1, ptr noundef nonnull @rb_node_type) #11
  %4 = getelementptr inbounds nuw i8, ptr %3, i64 8
  %5 = load ptr, ptr %4, align 8, !tbaa !72
  %.val = load i64, ptr %5, align 8, !tbaa !73
  %6 = trunc i64 %.val to i32
  %7 = lshr i32 %6, 8
  %8 = and i32 %7, 127
  %9 = tail call ptr @ruby_node_name(i32 noundef %8) #11
  %10 = getelementptr i8, ptr %9, i64 5
  %11 = tail call i64 @rb_sym_intern_ascii_cstr(ptr noundef %10) #11
  ret i64 %11
}